target datalayout = "e-m:e-p270:32:32-p271:32:32-p272:64:64-i64:64-i128:128-f80:128-n8:16:32:64-S128"
target triple = "x86_64-pc-linux-gnu"

%struct.Amap_Man_t_ = type { ptr, ptr, float, float, i32, i32, ptr, ptr, ptr, ptr, ptr, ptr, ptr, ptr, [7 x i32], i32, i32, i32, ptr, ptr, ptr, ptr, ptr, ptr, ptr, ptr, i32, i32, i32, i32 }
%struct.Amap_Obj_t_ = type { i64, i32, i32, i32, i32, [3 x i32], %union.anon, float, [2 x i32], %struct.Amap_Mat_t_ }
%union.anon = type { ptr }
%struct.Amap_Mat_t_ = type { ptr, ptr, float, float, float }
%struct.Vec_Ptr_t_ = type { i32, i32, ptr }
%struct.Amap_Set_t_ = type { ptr, i32, [15 x i8] }
%struct.Amap_Gat_t_ = type { ptr, ptr, ptr, ptr, double, ptr, ptr, i32, [0 x %struct.Amap_Pin_t_] }
%struct.Amap_Pin_t_ = type { ptr, i32, double, double, double, double, double, double, double }
%struct.Amap_Cut_t_ = type { i32, [0 x i32] }
%struct.Amap_Lib_t_ = type { ptr, ptr, ptr, ptr, ptr, ptr, ptr, ptr, ptr, i32, i32, i32, ptr, i32, i32, ptr, ptr, ptr, ptr, ptr, ptr, i32 }

; Function Attrs: inlinehint nounwind uwtable
define internal ptr @Vec_PtrEntry(ptr noundef %0, i32 noundef %1) #4 {
  %3 = alloca ptr, align 8
  %4 = alloca i32, align 4
  store ptr %0, ptr %3, align 8, !tbaa !28
  store i32 %1, ptr %4, align 4, !tbaa !10
  %5 = load ptr, ptr %3, align 8, !tbaa !28
  %6 = getelementptr inbounds nuw %struct.Vec_Ptr_t_, ptr %5, i32 0, i32 2
  %7 = load ptr, ptr %6, align 8, !tbaa !31
  %8 = load i32, ptr %4, align 4, !tbaa !10
  %9 = sext i32 %8 to i64
  %10 = getelementptr inbounds ptr, ptr %7, i64 %9
  %11 = load ptr, ptr %10, align 8, !tbaa !32
  ret ptr %11
}

; Function Attrs: inlinehint nounwind uwtable
define internal i32 @Abc_LitIsCompl(i32 noundef %0) #4 {
  %2 = alloca i32, align 4
  store i32 %0, ptr %2, align 4, !tbaa !10
  %3 = load i32, ptr %2, align 4, !tbaa !10
  %4 = and i32 %3, 1
  ret i32 %4
}

; Function Attrs: inlinehint nounwind uwtable
define internal ptr @Amap_ManObj(ptr noundef %0, i32 noundef %1) #4 {
  %3 = alloca ptr, align 8
  %4 = alloca i32, align 4
  store ptr %0, ptr %3, align 8, !tbaa !3
  store i32 %1, ptr %4, align 4, !tbaa !10
  %5 = load ptr, ptr %3, align 8, !tbaa !3
  %6 = getelementptr inbounds nuw %struct.Amap_Man_t_, ptr %5, i32 0, i32 8
  %7 = load ptr, ptr %6, align 8, !tbaa !24
  %8 = load i32, ptr %4, align 4, !tbaa !10
  %9 = call ptr @Vec_PtrEntry(ptr noundef %7, i32 noundef %8)
  ret ptr %9
}

; Function Attrs: inlinehint nounwind uwtable
define internal i32 @Abc_Lit2Var(i32 noundef %0) #4 {
  %2 = alloca i32, align 4
  store i32 %0, ptr %2, align 4, !tbaa !10
  %3 = load i32, ptr %2, align 4, !tbaa !10
  %4 = ashr i32 %3, 1
  ret i32 %4
}

; Function Attrs: inlinehint nounwind uwtable
define internal ptr @Amap_LibGate(ptr noundef %0, i32 noundef %1) #4 {
  %3 = alloca ptr, align 8
  %4 = alloca i32, align 4
  store ptr %0, ptr %3, align 8, !tbaa !54
  store i32 %1, ptr %4, align 4, !tbaa !10
  %5 = load ptr, ptr %3, align 8, !tbaa !54
  %6 = getelementptr inbounds nuw %struct.Amap_Lib_t_, ptr %5, i32 0, i32 1
  %7 = load ptr, ptr %6, align 8, !tbaa !55
  %8 = load i32, ptr %4, align 4, !tbaa !10
  %9 = call ptr @Vec_PtrEntry(ptr noundef %7, i32 noundef %8)
  ret ptr %9
}

; Function Attrs: inlinehint nounwind uwtable
define internal i32 @Amap_ObjIsConst1(ptr noundef %0) #4 {
  %2 = alloca ptr, align 8
  store ptr %0, ptr %2, align 8, !tbaa !25
  %3 = load ptr, ptr %2, align 8, !tbaa !25
  %4 = load i64, ptr %3, align 8
  %5 = and i64 %4, 7
  %6 = trunc i64 %5 to i32
  %7 = icmp eq i32 %6, 1
  %8 = zext i1 %7 to i32
  ret i32 %8
}

; Function Attrs: inlinehint nounwind uwtable
define internal i32 @Amap_ObjIsPi(ptr noundef %0) #4 {
  %2 = alloca ptr, align 8
  store ptr %0, ptr %2, align 8, !tbaa !25
  %3 = load ptr, ptr %2, align 8, !tbaa !25
  %4 = load i64, ptr %3, align 8
  %5 = and i64 %4, 7
  %6 = trunc i64 %5 to i32
  %7 = icmp eq i32 %6, 2
  %8 = zext i1 %7 to i32
  ret i32 %8
}

; Function Attrs: nounwind uwtable
define float @Amap_ManComputeMapping_rec(ptr noundef %0, ptr noundef %1, i32 noundef %2) #0 {
  %4 = alloca float, align 4
  %5 = alloca ptr, align 8
  %6 = alloca ptr, align 8
  %7 = alloca i32, align 4
  %8 = alloca ptr, align 8
  %9 = alloca ptr, align 8
  %10 = alloca ptr, align 8
  %11 = alloca i32, align 4
  %12 = alloca i32, align 4
  %13 = alloca i32, align 4
  %14 = alloca float, align 4
  %15 = alloca i32, align 4
  store ptr %0, ptr %5, align 8, !tbaa !3
  store ptr %1, ptr %6, align 8, !tbaa !25
  store i32 %2, ptr %7, align 4, !tbaa !10
  call void @llvm.lifetime.start.p0(i64 8, ptr %8) #12
  %16 = load ptr, ptr %6, align 8, !tbaa !25
  %17 = getelementptr inbounds nuw %struct.Amap_Obj_t_, ptr %16, i32 0, i32 9
  store ptr %17, ptr %8, align 8, !tbaa !42
  call void @llvm.lifetime.start.p0(i64 8, ptr %9) #12
  call void @llvm.lifetime.start.p0(i64 8, ptr %10) #12
  call void @llvm.lifetime.start.p0(i64 4, ptr %11) #12
  call void @llvm.lifetime.start.p0(i64 4, ptr %12) #12
  call void @llvm.lifetime.start.p0(i64 4, ptr %13) #12
  call void @llvm.lifetime.start.p0(i64 4, ptr %14) #12
  %18 = load ptr, ptr %6, align 8, !tbaa !25
  %19 = getelementptr inbounds nuw %struct.Amap_Obj_t_, ptr %18, i32 0, i32 8
  %20 = load i32, ptr %7, align 4, !tbaa !10
  %21 = sext i32 %20 to i64
  %22 = getelementptr inbounds [2 x i32], ptr %19, i64 0, i64 %21
  %23 = load i32, ptr %22, align 4, !tbaa !10
  %24 = add nsw i32 %23, 1
  store i32 %24, ptr %22, align 4, !tbaa !10
  %25 = load ptr, ptr %6, align 8, !tbaa !25
  %26 = getelementptr inbounds nuw %struct.Amap_Obj_t_, ptr %25, i32 0, i32 8
  %27 = load i32, ptr %7, align 4, !tbaa !10
  %28 = icmp ne i32 %27, 0
  %29 = xor i1 %28, true
  %30 = zext i1 %29 to i32
  %31 = sext i32 %30 to i64
  %32 = getelementptr inbounds [2 x i32], ptr %26, i64 0, i64 %31
  %33 = load i32, ptr %32, align 4, !tbaa !10
  %34 = add nsw i32 %23, %33
  %35 = icmp sgt i32 %34, 0
  br i1 %35, label %36, label %37

36:                                               ; preds = %3
  store float 0.000000e+00, ptr %4, align 4
  store i32 1, ptr %15, align 4
  br label %121

37:                                               ; preds = %3
  %38 = load ptr, ptr %6, align 8, !tbaa !25
  %39 = call i32 @Amap_ObjIsPi(ptr noundef %38)
  %40 = icmp ne i32 %39, 0
  br i1 %40, label %45, label %41

41:                                               ; preds = %37
  %42 = load ptr, ptr %6, align 8, !tbaa !25
  %43 = call i32 @Amap_ObjIsConst1(ptr noundef %42)
  %44 = icmp ne i32 %43, 0
  br i1 %44, label %45, label %46

45:                                               ; preds = %41, %37
  store float 0.000000e+00, ptr %4, align 4
  store i32 1, ptr %15, align 4
  br label %121

46:                                               ; preds = %41
  %47 = load ptr, ptr %5, align 8, !tbaa !3
  %48 = getelementptr inbounds nuw %struct.Amap_Man_t_, ptr %47, i32 0, i32 1
  %49 = load ptr, ptr %48, align 8, !tbaa !44
  %50 = load ptr, ptr %8, align 8, !tbaa !42
  %51 = getelementptr inbounds nuw %struct.Amap_Mat_t_, ptr %50, i32 0, i32 1
  %52 = load ptr, ptr %51, align 8, !tbaa !45
  %53 = getelementptr inbounds nuw %struct.Amap_Set_t_, ptr %52, i32 0, i32 1
  %54 = load i32, ptr %53, align 8
  %55 = and i32 %54, 65535
  %56 = call ptr @Amap_LibGate(ptr noundef %49, i32 noundef %55)
  store ptr %56, ptr %10, align 8, !tbaa !46
  %57 = load ptr, ptr %10, align 8, !tbaa !46
  %58 = getelementptr inbounds nuw %struct.Amap_Gat_t_, ptr %57, i32 0, i32 4
  %59 = load double, ptr %58, align 8, !tbaa !48
  %60 = fptrunc double %59 to float
  store float %60, ptr %14, align 4, !tbaa !33
  store i32 0, ptr %11, align 4, !tbaa !10
  br label %61

61:                                               ; preds = %116, %46
  %62 = load i32, ptr %11, align 4, !tbaa !10
  %63 = load ptr, ptr %10, align 8, !tbaa !46
  %64 = getelementptr inbounds nuw %struct.Amap_Gat_t_, ptr %63, i32 0, i32 7
  %65 = load i32, ptr %64, align 8
  %66 = lshr i32 %65, 24
  %67 = icmp slt i32 %62, %66
  br i1 %67, label %68, label %119

68:                                               ; preds = %61
  %69 = load ptr, ptr %8, align 8, !tbaa !42
  %70 = getelementptr inbounds nuw %struct.Amap_Mat_t_, ptr %69, i32 0, i32 1
  %71 = load ptr, ptr %70, align 8, !tbaa !45
  %72 = getelementptr inbounds nuw %struct.Amap_Set_t_, ptr %71, i32 0, i32 2
  %73 = load i32, ptr %11, align 4, !tbaa !10
  %74 = sext i32 %73 to i64
  %75 = getelementptr inbounds [15 x i8], ptr %72, i64 0, i64 %74
  %76 = load i8, ptr %75, align 1, !tbaa !40
  %77 = sext i8 %76 to i32
  %78 = call i32 @Abc_Lit2Var(i32 noundef %77)
  store i32 %78, ptr %12, align 4, !tbaa !10
  %79 = load ptr, ptr %5, align 8, !tbaa !3
  %80 = load ptr, ptr %8, align 8, !tbaa !42
  %81 = getelementptr inbounds nuw %struct.Amap_Mat_t_, ptr %80, i32 0, i32 0
  %82 = load ptr, ptr %81, align 8, !tbaa !52
  %83 = getelementptr inbounds nuw %struct.Amap_Cut_t_, ptr %82, i32 0, i32 1
  %84 = load i32, ptr %12, align 4, !tbaa !10
  %85 = sext i32 %84 to i64
  %86 = getelementptr inbounds [0 x i32], ptr %83, i64 0, i64 %85
  %87 = load i32, ptr %86, align 4, !tbaa !10
  %88 = call i32 @Abc_Lit2Var(i32 noundef %87)
  %89 = call ptr @Amap_ManObj(ptr noundef %79, i32 noundef %88)
  store ptr %89, ptr %9, align 8, !tbaa !25
  %90 = load ptr, ptr %8, align 8, !tbaa !42
  %91 = getelementptr inbounds nuw %struct.Amap_Mat_t_, ptr %90, i32 0, i32 1
  %92 = load ptr, ptr %91, align 8, !tbaa !45
  %93 = getelementptr inbounds nuw %struct.Amap_Set_t_, ptr %92, i32 0, i32 2
  %94 = load i32, ptr %11, align 4, !tbaa !10
  %95 = sext i32 %94 to i64
  %96 = getelementptr inbounds [15 x i8], ptr %93, i64 0, i64 %95
  %97 = load i8, ptr %96, align 1, !tbaa !40
  %98 = sext i8 %97 to i32
  %99 = call i32 @Abc_LitIsCompl(i32 noundef %98)
  %100 = load ptr, ptr %8, align 8, !tbaa !42
  %101 = getelementptr inbounds nuw %struct.Amap_Mat_t_, ptr %100, i32 0, i32 0
  %102 = load ptr, ptr %101, align 8, !tbaa !52
  %103 = getelementptr inbounds nuw %struct.Amap_Cut_t_, ptr %102, i32 0, i32 1
  %104 = load i32, ptr %12, align 4, !tbaa !10
  %105 = sext i32 %104 to i64
  %106 = getelementptr inbounds [0 x i32], ptr %103, i64 0, i64 %105
  %107 = load i32, ptr %106, align 4, !tbaa !10
  %108 = call i32 @Abc_LitIsCompl(i32 noundef %107)
  %109 = xor i32 %99, %108
  store i32 %109, ptr %13, align 4, !tbaa !10
  %110 = load ptr, ptr %5, align 8, !tbaa !3
  %111 = load ptr, ptr %9, align 8, !tbaa !25
  %112 = load i32, ptr %13, align 4, !tbaa !10
  %113 = call float @Amap_ManComputeMapping_rec(ptr noundef %110, ptr noundef %111, i32 noundef %112)
  %114 = load float, ptr %14, align 4, !tbaa !33
  %115 = fadd float %114, %113
  store float %115, ptr %14, align 4, !tbaa !33
  br label %116

116:                                              ; preds = %68
  %117 = load i32, ptr %11, align 4, !tbaa !10
  %118 = add nsw i32 %117, 1
  store i32 %118, ptr %11, align 4, !tbaa !10
  br label %61, !llvm.loop !53

119:                                              ; preds = %61
  %120 = load float, ptr %14, align 4, !tbaa !33
  store float %120, ptr %4, align 4
  store i32 1, ptr %15, align 4
  br label %121

121:                                              ; preds = %119, %45, %36
  call void @llvm.lifetime.end.p0(i64 4, ptr %14) #12
  call void @llvm.lifetime.end.p0(i64 4, ptr %13) #12
  call void @llvm.lifetime.end.p0(i64 4, ptr %12) #12
  call void @llvm.lifetime.end.p0(i64 4, ptr %11) #12
  call void @llvm.lifetime.end.p0(i64 8, ptr %10) #12
  call void @llvm.lifetime.end.p0(i64 8, ptr %9) #12
  call void @llvm.lifetime.end.p0(i64 8, ptr %8) #12
  %122 = load float, ptr %4, align 4
  ret float %122
}