; Function Attrs: nofree nosync nounwind memory(readwrite, inaccessiblemem: none) uwtable
define float @Amap_ManComputeMapping_rec(ptr noundef readonly captures(none) %0, ptr noundef captures(none) %1, i32 noundef %2) local_unnamed_addr #6 {
  %4 = getelementptr inbounds nuw i8, ptr %1, i64 64
  %5 = getelementptr inbounds nuw i8, ptr %1, i64 52
  %6 = sext i32 %2 to i64
  %7 = getelementptr inbounds [2 x i32], ptr %5, i64 0, i64 %6
  %8 = load i32, ptr %7, align 4, !tbaa !25
  %9 = add nsw i32 %8, 1
  store i32 %9, ptr %7, align 4, !tbaa !25
  %.not = icmp eq i32 %2, 0
  %10 = zext i1 %.not to i64
  %11 = getelementptr inbounds nuw [2 x i32], ptr %5, i64 0, i64 %10
  %12 = load i32, ptr %11, align 4, !tbaa !25
  %13 = add nsw i32 %12, %8
  %14 = icmp sgt i32 %13, 0
  br i1 %14, label %.loopexit, label %15

15:                                               ; preds = %3
  %.val31 = load i64, ptr %1, align 8
  %16 = and i64 %.val31, 7
  %.off = add nsw i64 %16, -1
  %switch = icmp ult i64 %.off, 2
  br i1 %switch, label %.loopexit, label %17

17:                                               ; preds = %15
  %18 = getelementptr inbounds nuw i8, ptr %0, i64 8
  %19 = load ptr, ptr %18, align 8, !tbaa !36
  %20 = getelementptr inbounds nuw i8, ptr %1, i64 72
  %21 = load ptr, ptr %20, align 8, !tbaa !37
  %22 = getelementptr inbounds nuw i8, ptr %21, i64 8
  %23 = load i32, ptr %22, align 8
  %24 = and i32 %23, 65535
  %25 = getelementptr i8, ptr %19, i64 8
  %.val33 = load ptr, ptr %25, align 8, !tbaa !38
  %26 = getelementptr i8, ptr %.val33, i64 8
  %.val33.val = load ptr, ptr %26, align 8, !tbaa !23
  %27 = zext nneg i32 %24 to i64
  %28 = getelementptr inbounds nuw ptr, ptr %.val33.val, i64 %27
  %29 = load ptr, ptr %28, align 8, !tbaa !24
  %30 = getelementptr inbounds nuw i8, ptr %29, i64 32
  %31 = load double, ptr %30, align 8, !tbaa !44
  %32 = fptrunc double %31 to float
  %33 = getelementptr inbounds nuw i8, ptr %29, i64 56
  %34 = load i32, ptr %33, align 8
  %.not38 = icmp ult i32 %34, 16777216
  br i1 %.not38, label %.loopexit, label %.lr.ph

.lr.ph:                                           ; preds = %17
  %35 = getelementptr i8, ptr %0, i64 48
  br label %36

36:                                               ; preds = %.lr.ph, %36
  %indvars.iv = phi i64 [ 0, %.lr.ph ], [ %indvars.iv.next, %36 ]
  %.037 = phi float [ %32, %.lr.ph ], [ %56, %36 ]
  %37 = load ptr, ptr %20, align 8, !tbaa !37
  %38 = getelementptr inbounds nuw i8, ptr %37, i64 12
  %39 = getelementptr inbounds nuw [15 x i8], ptr %38, i64 0, i64 %indvars.iv
  %40 = load i8, ptr %39, align 1, !tbaa !34
  %41 = sext i8 %40 to i32
  %42 = ashr i32 %41, 1
  %43 = load ptr, ptr %4, align 8, !tbaa !47
  %44 = getelementptr inbounds nuw i8, ptr %43, i64 4
  %45 = sext i32 %42 to i64
  %46 = getelementptr inbounds [0 x i32], ptr %44, i64 0, i64 %45
  %47 = load i32, ptr %46, align 4, !tbaa !25
  %48 = ashr i32 %47, 1
  %.val = load ptr, ptr %35, align 8, !tbaa !20
  %49 = getelementptr i8, ptr %.val, i64 8
  %.val.val = load ptr, ptr %49, align 8, !tbaa !23
  %50 = sext i32 %48 to i64
  %51 = getelementptr inbounds ptr, ptr %.val.val, i64 %50
  %52 = load ptr, ptr %51, align 8, !tbaa !24
  %53 = xor i32 %47, %41
  %54 = and i32 %53, 1
  %55 = tail call float @Amap_ManComputeMapping_rec(ptr noundef nonnull %0, ptr noundef %52, i32 noundef %54)
  %56 = fadd float %.037, %55
  %indvars.iv.next = add nuw nsw i64 %indvars.iv, 1
  %57 = load i32, ptr %33, align 8
  %58 = lshr i32 %57, 24
  %59 = zext nneg i32 %58 to i64
  %60 = icmp samesign ult i64 %indvars.iv.next, %59
  br i1 %60, label %36, label %.loopexit, !llvm.loop !48

.loopexit:                                        ; preds = %36, %17, %15, %3
  %.027 = phi float [ 0.000000e+00, %3 ], [ 0.000000e+00, %15 ], [ %32, %17 ], [ %56, %36 ]
  ret float %.027
}